(lp1
(dp2
S'route'
p3
(lp4
(I40
I1
tp5
a(I16
I-1
tp6
a(I8
I-1
tp7
a(I40
I-1
tp8
a(I8
I-1
tp9
a(I16
I1
tp10
a(I40
I-1
tp11
a(I8
I0
tp12
asS'colorIdx'
p13
I0
sS'startPos'
p14
(I-80
I0
tp15
sa(dp16
g3
(lp17
(I48
I-1
tp18
a(I40
I-1
tp19
a(I24
I-1
tp20
a(I16
I1
tp21
a(I16
I1
tp22
a(I16
I-1
tp23
a(I8
I-1
tp24
a(I8
I-1
tp25
a(I16
I1
tp26
a(I16
I-1
tp27
a(I8
I1
tp28
a(I8
I1
tp29
a(I24
I-1
tp30
a(I8
I0
tp31
asg13
I1
sg14
(I-48
I0
tp32
sa(dp33
g3
(lp34
(I8
I-1
tp35
a(I24
I-1
tp36
a(I8
I-1
tp37
a(I24
I0
tp38
asg13
I1
sg14
(I-40
I-32
tp39
sa(dp40
g3
(lp41
(I48
I-1
tp42
a(I40
I-1
tp43
a(I48
I-1
tp44
a(I40
I0
tp45
asg13
I2
sg14
(I0
I0
tp46
sa(dp47
g3
(lp48
(I32
I-1
tp49
a(I24
I-1
tp50
a(I32
I-1
tp51
a(I24
I0
tp52
asg13
I2
sg14
(I8
I-8
tp53
sa(dp54
g3
(lp55
(I32
I-1
tp56
a(I24
I-1
tp57
a(I8
I-1
tp58
a(I16
I1
tp59
a(I8
I1
tp60
a(I8
I-1
tp61
a(I8
I-1
tp62
a(I8
I1
tp63
a(I8
I-1
tp64
a(I8
I0
tp65
asg13
I3
sg14
(I48
I-16
tp66
sa(dp67
g3
(lp68
(I32
I-1
tp69
a(I24
I-1
tp70
a(I8
I-1
tp71
a(I16
I1
tp72
a(I8
I1
tp73
a(I8
I-1
tp74
a(I8
I-1
tp75
a(I8
I1
tp76
a(I8
I-1
tp77
a(I8
I0
tp78
asg13
I3
sg14
(I72
I0
tp79
sa.